target datalayout = "e-m:e-p270:32:32-p271:32:32-p272:64:64-i64:64-i128:128-f80:128-n8:16:32:64-S128"
target triple = "x86_64-unknown-linux-gnu"

%"struct.facebook::velox::Timestamp" = type { i64, i64 }

; Function Attrs: mustprogress nounwind uwtable
define linkonce_odr void @_ZN8facebook5velox9TimestampC2Elm(ptr noundef nonnull align 8 dereferenceable(16) %this, i64 noundef %seconds, i64 noundef %nanos) unnamed_addr #0 comdat align 2 {
entry:
  %this.addr = alloca ptr, align 8
  %seconds.addr = alloca i64, align 8
  %nanos.addr = alloca i64, align 8
  store ptr %this, ptr %this.addr, align 8
  store i64 %seconds, ptr %seconds.addr, align 8
  store i64 %nanos, ptr %nanos.addr, align 8
  %this1 = load ptr, ptr %this.addr, align 8
  %seconds_ = getelementptr inbounds %"struct.facebook::velox::Timestamp", ptr %this1, i32 0, i32 0
  %0 = load i64, ptr %seconds.addr, align 8
  store i64 %0, ptr %seconds_, align 8
  %nanos_ = getelementptr inbounds %"struct.facebook::velox::Timestamp", ptr %this1, i32 0, i32 1
  %1 = load i64, ptr %nanos.addr, align 8
  store i64 %1, ptr %nanos_, align 8
  ret void
}

; Function Attrs: mustprogress uwtable
define { i64, i64 } @_ZN8facebook5velox4util12fromDatetimeEll(i64 noundef %daysSinceEpoch, i64 noundef %microsSinceMidnight) #1 {
entry:
  %retval = alloca %"struct.facebook::velox::Timestamp", align 8
  %daysSinceEpoch.addr = alloca i64, align 8
  %microsSinceMidnight.addr = alloca i64, align 8
  %secondsSinceEpoch = alloca i64, align 8
  store i64 %daysSinceEpoch, ptr %daysSinceEpoch.addr, align 8
  store i64 %microsSinceMidnight, ptr %microsSinceMidnight.addr, align 8
  %0 = load i64, ptr %daysSinceEpoch.addr, align 8
  %mul = mul nsw i64 %0, 86400
  store i64 %mul, ptr %secondsSinceEpoch, align 8
  %1 = load i64, ptr %microsSinceMidnight.addr, align 8
  %div = sdiv i64 %1, 1000000
  %2 = load i64, ptr %secondsSinceEpoch, align 8
  %add = add nsw i64 %2, %div
  store i64 %add, ptr %secondsSinceEpoch, align 8
  %3 = load i64, ptr %secondsSinceEpoch, align 8
  %4 = load i64, ptr %microsSinceMidnight.addr, align 8
  %rem = srem i64 %4, 1000000
  %mul1 = mul nsw i64 %rem, 1000
  call void @_ZN8facebook5velox9TimestampC2Elm(ptr noundef nonnull align 8 dereferenceable(16) %retval, i64 noundef %3, i64 noundef %mul1)
  %5 = load { i64, i64 }, ptr %retval, align 8
  ret { i64, i64 } %5
}