; Function Attrs: mustprogress nofree norecurse nosync nounwind willreturn memory(none) uwtable
define { i64, i64 } @_ZN8facebook5velox4util12fromDatetimeEll(i64 noundef %daysSinceEpoch, i64 noundef %microsSinceMidnight) local_unnamed_addr #0 {
entry:
  %mul = mul nsw i64 %daysSinceEpoch, 86400
  %div = sdiv i64 %microsSinceMidnight, 1000000
  %add = add nsw i64 %div, %mul
  %rem = srem i64 %microsSinceMidnight, 1000000
  %mul1 = mul nsw i64 %rem, 1000
  %.fca.0.insert = insertvalue { i64, i64 } poison, i64 %add, 0
  %.fca.1.insert = insertvalue { i64, i64 } %.fca.0.insert, i64 %mul1, 1
  ret { i64, i64 } %.fca.1.insert
}